Certificate:
    Data:
        Version: 3 (0x2)
        Serial Number: 1 (0x1)
        Signature Algorithm: sha256WithRSAEncryption
        Issuer: O=Open Devices GmbH, CN=Open Devices GmbH Provisioning CA Root
        Validity
            Not Before: Jul  6 09:27:28 2020 GMT
            Not After : Mar 15 09:27:28 2034 GMT
        Subject: O=Open Devices GmbH, CN=Open Devices GmbH Provisioning CA Root
        Subject Public Key Info:
            Public Key Algorithm: rsaEncryption
                RSA Public-Key: (2048 bit)
                Modulus:
                    00:b4:21:6d:73:6f:32:bb:a3:f5:f8:44:b5:d1:b8:
                    31:ad:da:5e:58:80:36:5e:51:0d:72:7f:6a:d0:f3:
                    56:68:ff:50:a2:25:07:fc:bf:05:9a:e9:ee:9b:c3:
                    b8:46:25:41:23:22:a4:0e:c9:a5:46:29:ae:0e:ea:
                    9d:33:ec:8d:f5:95:83:4e:8b:60:87:50:5d:8b:43:
                    21:30:6d:2f:46:41:c2:41:63:ec:24:d0:51:f8:e8:
                    c6:85:36:a7:40:79:df:f4:37:96:6d:7f:4a:60:90:
                    8a:0e:ee:77:40:07:05:35:8b:da:7a:1d:88:f9:5f:
                    2b:48:30:4f:4d:59:99:2e:a7:c1:e8:bd:78:9c:6c:
                    14:7b:c1:0f:1e:99:62:22:4d:88:f2:01:73:f1:3f:
                    89:c8:5f:2b:c0:49:f3:a4:87:3b:5c:3a:47:08:8f:
                    e2:a3:22:4e:15:ff:fb:0a:30:24:ca:66:b5:d5:14:
                    e1:6c:18:74:9b:0c:7e:d5:aa:3c:72:cc:32:c0:5b:
                    73:f8:6e:9e:ce:0e:e4:3f:aa:ad:6e:87:a2:e3:4c:
                    d9:86:14:a9:82:91:4a:61:49:85:07:e7:ab:43:84:
                    7d:6e:f8:18:6c:6d:95:b0:7b:83:81:4d:ef:d9:b5:
                    54:6c:4c:60:11:f6:b4:17:32:6d:0e:11:65:07:a3:
                    3c:ad
                Exponent: 65537 (0x10001)
        X509v3 extensions:
            X509v3 Subject Key Identifier: 
                6F:B2:32:C4:4E:5B:6E:C7:30:0E:6C:91:59:46:50:D3:26:82:79:39
            X509v3 Authority Key Identifier: 
                keyid:6F:B2:32:C4:4E:5B:6E:C7:30:0E:6C:91:59:46:50:D3:26:82:79:39
                DirName:/O=Open Devices GmbH/CN=Open Devices GmbH Provisioning CA Root
                serial:01

            X509v3 Basic Constraints: 
                CA:TRUE
    Signature Algorithm: sha256WithRSAEncryption
         81:94:74:2c:21:a4:19:f6:02:59:24:df:91:73:2c:3b:88:d9:
         91:b5:c3:88:57:75:0d:a8:09:7a:2c:46:94:93:8e:af:7f:8e:
         3d:d8:76:6a:b5:ef:27:2b:bf:2b:95:42:19:96:7c:57:bc:a7:
         2a:13:cf:b2:3d:38:ef:2a:47:e1:e0:fa:47:5e:b9:60:4f:b7:
         2d:b0:55:67:62:17:0e:66:bd:ca:0e:ce:6c:2d:87:94:49:8d:
         0f:fb:92:ac:1c:eb:fa:25:8c:20:ee:45:4b:ea:7f:40:26:b6:
         74:c5:bb:2a:c7:59:bb:73:39:78:e9:4f:46:7c:64:f6:0c:4f:
         f3:fd:c3:d6:ab:ac:bd:e6:f2:89:54:e8:f1:c1:1b:55:86:12:
         88:74:ad:8c:b7:d0:84:01:20:69:72:6f:4a:0e:88:73:3a:4e:
         7e:05:cb:4e:57:4f:f9:67:30:fc:f8:56:82:d5:0b:5d:38:46:
         cf:83:3d:57:e8:05:2e:7d:7a:86:89:16:8a:f4:f1:af:63:cc:
         60:e5:78:6b:8d:f2:9a:50:2c:e5:9a:c5:eb:e0:e1:4a:16:9f:
         c3:9e:58:08:87:f2:50:ff:b8:d7:f6:e0:0b:b8:58:fc:3e:1d:
         d0:f4:e3:88:7f:4b:07:fa:3d:5d:4e:3c:2c:81:6a:4f:91:ae:
         c0:58:23:36
-----BEGIN CERTIFICATE-----
MIIDvTCCAqWgAwIBAgIBATANBgkqhkiG9w0BAQsFADBNMRowGAYDVQQKDBFPcGVu
IERldmljZXMgR21iSDEvMC0GA1UEAwwmT3BlbiBEZXZpY2VzIEdtYkggUHJvdmlz
aW9uaW5nIENBIFJvb3QwHhcNMjAwNzA2MDkyNzI4WhcNMzQwMzE1MDkyNzI4WjBN
MRowGAYDVQQKDBFPcGVuIERldmljZXMgR21iSDEvMC0GA1UEAwwmT3BlbiBEZXZp
Y2VzIEdtYkggUHJvdmlzaW9uaW5nIENBIFJvb3QwggEiMA0GCSqGSIb3DQEBAQUA
A4IBDwAwggEKAoIBAQC0IW1zbzK7o/X4RLXRuDGt2l5YgDZeUQ1yf2rQ81Zo/1Ci
JQf8vwWa6e6bw7hGJUEjIqQOyaVGKa4O6p0z7I31lYNOi2CHUF2LQyEwbS9GQcJB
Y+wk0FH46MaFNqdAed/0N5Ztf0pgkIoO7ndABwU1i9p6HYj5XytIME9NWZkup8Ho
vXicbBR7wQ8emWIiTYjyAXPxP4nIXyvASfOkhztcOkcIj+KjIk4V//sKMCTKZrXV
FOFsGHSbDH7VqjxyzDLAW3P4bp7ODuQ/qq1uh6LjTNmGFKmCkUphSYUH56tDhH1u
+BhsbZWwe4OBTe/ZtVRsTGAR9rQXMm0OEWUHozytAgMBAAGjgacwgaQwHQYDVR0O
BBYEFG+yMsROW27HMA5skVlGUNMmgnk5MHUGA1UdIwRuMGyAFG+yMsROW27HMA5s
kVlGUNMmgnk5oVGkTzBNMRowGAYDVQQKDBFPcGVuIERldmljZXMgR21iSDEvMC0G
A1UEAwwmT3BlbiBEZXZpY2VzIEdtYkggUHJvdmlzaW9uaW5nIENBIFJvb3SCAQEw
DAYDVR0TBAUwAwEB/zANBgkqhkiG9w0BAQsFAAOCAQEAgZR0LCGkGfYCWSTfkXMs
O4jZkbXDiFd1DagJeixGlJOOr3+OPdh2arXvJyu/K5VCGZZ8V7ynKhPPsj047ypH
4eD6R165YE+3LbBVZ2IXDma9yg7ObC2HlEmND/uSrBzr+iWMIO5FS+p/QCa2dMW7
KsdZu3M5eOlPRnxk9gxP8/3D1qusvebyiVTo8cEbVYYSiHStjLfQhAEgaXJvSg6I
czpOfgXLTldP+Wcw/PhWgtULXThGz4M9V+gFLn16hokWivTxr2PMYOV4a43ymlAs
5ZrF6+DhShafw55YCIfyUP+41/bgC7hY/D4d0PTjiH9LB/o9XU48LIFqT5GuwFgj
Ng==
-----END CERTIFICATE-----
-----BEGIN X509 CRL-----
MIIBkjB8MA0GCSqGSIb3DQEBCwUAME0xGjAYBgNVBAoMEU9wZW4gRGV2aWNlcyBH
bWJIMS8wLQYDVQQDDCZPcGVuIERldmljZXMgR21iSCBQcm92aXNpb25pbmcgQ0Eg
Um9vdBcNMjAwNzA2MDkyNzI5WhcNMzQwMzE1MDkyNzI5WjANBgkqhkiG9w0BAQsF
AAOCAQEAmRyRp5B5NgytBZOltqLh5GTwknsiLCb9vMysR0kJgNPlWzbu+ThCLKdg
4yUD2///4U0XEZnYSySo8NWCo2IPIM4eVvXlFXIK7UzcRgoAq3g4DGWYw5ul8wG8
vbrAl/nDwNyo1zATfdTGr5ueV+f51L4oXhd7vwBUtSdueGQNnvN8C+fnMALPuX2L
lpWaOughxCFprDoUDEOPsrt+Y2b/1FsC99I9aRuDLXUcgTjvPhUUFIuLrrPKV/TR
vuXvvkGfSBgG9eZCmzUNa52wjGle7ZdC4B7URnx+Dn1y9sxqIZHHfGWylPzdlP9B
xtPxatUWjto+vUu7nhkvc+/iyOmptg==
-----END X509 CRL-----
Certificate:
    Data:
        Version: 3 (0x2)
        Serial Number: 3 (0x3)
        Signature Algorithm: sha256WithRSAEncryption
        Issuer: O=Open Devices GmbH, CN=Open Devices GmbH Provisioning CA Root
        Validity
            Not Before: Jul  6 09:27:28 2020 GMT
            Not After : Mar 15 09:27:28 2034 GMT
        Subject: O=Open Devices GmbH, CN=Open Devices GmbH Provisioning CA Release
        Subject Public Key Info:
            Public Key Algorithm: rsaEncryption
                RSA Public-Key: (2048 bit)
                Modulus:
                    00:bf:e9:9f:96:f1:71:0b:81:66:94:6d:15:d9:99:
                    9b:34:39:54:d4:62:59:6f:f4:a5:88:51:19:87:d2:
                    e4:86:b2:5b:fe:0f:27:d8:6e:96:bb:12:48:c6:79:
                    03:8b:4b:01:9d:1f:64:77:a4:bb:3a:ab:9e:cf:22:
                    71:2a:a6:37:28:a1:0c:33:a5:40:22:da:80:2b:49:
                    0e:54:42:b6:f5:37:2b:88:ac:af:1a:7c:a7:9b:60:
                    60:71:86:1c:a5:fd:d2:b5:10:ae:61:a0:aa:86:70:
                    2a:bb:df:7c:9e:4a:2a:7f:9c:58:49:6b:fb:8d:ef:
                    70:db:32:4e:cb:c2:04:d4:0b:12:d6:9d:4c:9b:c4:
                    b5:f4:5c:b0:da:27:dd:d3:55:7a:bc:64:04:c2:7c:
                    a2:e3:40:c7:cf:24:57:cf:df:37:ce:56:7b:3d:4c:
                    4c:73:fa:b1:ad:4e:97:12:5d:39:aa:e4:0c:57:03:
                    89:0a:e2:e6:31:bf:42:7a:b1:92:4a:7d:5c:f9:31:
                    1c:bb:3c:f5:a9:55:05:31:06:73:18:d0:fd:bc:2f:
                    89:7d:b2:36:77:b7:96:b3:db:96:a4:dd:1a:80:22:
                    ec:4c:7d:d7:98:c9:8e:19:74:f2:e9:9f:10:8e:89:
                    45:5f:3c:b9:0d:da:26:5c:02:cf:0e:f4:f9:74:71:
                    e0:8d
                Exponent: 65537 (0x10001)
        X509v3 extensions:
            X509v3 Subject Key Identifier: 
                4A:D6:D0:8D:80:89:D1:4D:44:B8:F5:B0:7F:55:5F:EA:1D:66:7A:9E
            X509v3 Authority Key Identifier: 
                keyid:6F:B2:32:C4:4E:5B:6E:C7:30:0E:6C:91:59:46:50:D3:26:82:79:39
                DirName:/O=Open Devices GmbH/CN=Open Devices GmbH Provisioning CA Root
                serial:01

            X509v3 Basic Constraints: 
                CA:TRUE, pathlen:0
    Signature Algorithm: sha256WithRSAEncryption
         08:37:58:2f:0b:11:d7:1e:5d:bd:3a:41:87:1b:36:57:36:b1:
         3d:30:4a:e2:cf:31:f1:97:b5:7a:fe:05:30:0a:ac:f9:aa:f5:
         02:f8:3c:a2:3c:ab:c6:6c:f7:3f:03:c1:f8:7f:11:56:1e:30:
         04:75:03:85:a4:87:c3:2b:2b:18:33:5b:ea:41:d1:78:e2:88:
         7a:a7:c9:51:ee:86:5b:b0:e0:b0:c3:1f:58:36:76:fd:ab:86:
         d5:12:1a:8c:d6:6a:93:3a:5f:e2:6a:95:75:d4:c1:0e:e3:86:
         0a:d4:5a:53:0e:dd:6f:bb:a6:15:60:34:14:b6:99:1f:5b:7e:
         aa:b0:91:ee:98:67:43:e0:a4:04:af:c7:9c:22:da:93:53:63:
         17:95:4d:57:8a:db:66:d9:72:b5:87:f9:45:55:73:28:10:ea:
         da:0a:e0:34:a0:46:22:c5:cc:b8:e2:96:01:a6:30:0f:1b:3c:
         70:a5:7f:e0:fb:d0:5c:17:68:29:c2:20:25:2d:44:e6:52:3b:
         a6:0b:71:aa:83:a8:2e:34:4f:a2:81:01:a5:2a:13:e4:f4:9a:
         3b:30:58:c6:e6:e8:83:62:5f:54:8e:5b:ec:63:c6:f7:82:19:
         67:2a:39:08:71:a6:00:cb:d4:3a:6e:60:fa:48:14:83:f7:c8:
         af:8e:59:ea
-----BEGIN CERTIFICATE-----
MIIDwzCCAqugAwIBAgIBAzANBgkqhkiG9w0BAQsFADBNMRowGAYDVQQKDBFPcGVu
IERldmljZXMgR21iSDEvMC0GA1UEAwwmT3BlbiBEZXZpY2VzIEdtYkggUHJvdmlz
aW9uaW5nIENBIFJvb3QwHhcNMjAwNzA2MDkyNzI4WhcNMzQwMzE1MDkyNzI4WjBQ
MRowGAYDVQQKDBFPcGVuIERldmljZXMgR21iSDEyMDAGA1UEAwwpT3BlbiBEZXZp
Y2VzIEdtYkggUHJvdmlzaW9uaW5nIENBIFJlbGVhc2UwggEiMA0GCSqGSIb3DQEB
AQUAA4IBDwAwggEKAoIBAQC/6Z+W8XELgWaUbRXZmZs0OVTUYllv9KWIURmH0uSG
slv+DyfYbpa7EkjGeQOLSwGdH2R3pLs6q57PInEqpjcooQwzpUAi2oArSQ5UQrb1
NyuIrK8afKebYGBxhhyl/dK1EK5hoKqGcCq733yeSip/nFhJa/uN73DbMk7LwgTU
CxLWnUybxLX0XLDaJ93TVXq8ZATCfKLjQMfPJFfP3zfOVns9TExz+rGtTpcSXTmq
5AxXA4kK4uYxv0J6sZJKfVz5MRy7PPWpVQUxBnMY0P28L4l9sjZ3t5az25ak3RqA
IuxMfdeYyY4ZdPLpnxCOiUVfPLkN2iZcAs8O9Pl0ceCNAgMBAAGjgaowgacwHQYD
VR0OBBYEFErW0I2AidFNRLj1sH9VX+odZnqeMHUGA1UdIwRuMGyAFG+yMsROW27H
MA5skVlGUNMmgnk5oVGkTzBNMRowGAYDVQQKDBFPcGVuIERldmljZXMgR21iSDEv
MC0GA1UEAwwmT3BlbiBEZXZpY2VzIEdtYkggUHJvdmlzaW9uaW5nIENBIFJvb3SC
AQEwDwYDVR0TBAgwBgEB/wIBADANBgkqhkiG9w0BAQsFAAOCAQEACDdYLwsR1x5d
vTpBhxs2VzaxPTBK4s8x8Ze1ev4FMAqs+ar1Avg8ojyrxmz3PwPB+H8RVh4wBHUD
haSHwysrGDNb6kHReOKIeqfJUe6GW7DgsMMfWDZ2/auG1RIajNZqkzpf4mqVddTB
DuOGCtRaUw7db7umFWA0FLaZH1t+qrCR7phnQ+CkBK/HnCLak1NjF5VNV4rbZtly
tYf5RVVzKBDq2grgNKBGIsXMuOKWAaYwDxs8cKV/4PvQXBdoKcIgJS1E5lI7pgtx
qoOoLjRPooEBpSoT5PSaOzBYxubog2JfVI5b7GPG94IZZyo5CHGmAMvUOm5g+kgU
g/fIr45Z6g==
-----END CERTIFICATE-----
-----BEGIN X509 CRL-----
MIIBlTB/MA0GCSqGSIb3DQEBCwUAMFAxGjAYBgNVBAoMEU9wZW4gRGV2aWNlcyBH
bWJIMTIwMAYDVQQDDClPcGVuIERldmljZXMgR21iSCBQcm92aXNpb25pbmcgQ0Eg
UmVsZWFzZRcNMjAwNzA2MDkyNzI5WhcNMzQwMzE1MDkyNzI5WjANBgkqhkiG9w0B
AQsFAAOCAQEAryQmqLlC5phTrF4+W1ecaj9AfBlPjVdyy68MlpXH0vkgWmacf6m4
6gWM3S/0UJ9D8KjJHj5z7kzx4Xpu8dvA+uuEMgoEE3q9YeA2Ir1YIh4d+YxqRCAn
3bkA+QdDHek+LI7tN+T8DVUMST0E+/8P8LEmlT1g4cmSiG7Qut0Wo781d4BUFmwR
urDQvaQBZszKLKIKFX6atT+8wlMcDfUBO9N2CDuysAoYQX4df3GR57Q6SMYX54yO
/ikLndtdxtnuKblv+Z7XbvO7jW7lk3ngy2kS+AD9x1YWkfFzbQdhm/BazdoBfrYZ
fUu2soGGUa7R489X6BHJRQ7pqi0erqr5nA==
-----END X509 CRL-----
